target datalayout = "e-m:e-p270:32:32-p271:32:32-p272:64:64-i64:64-i128:128-f80:128-n8:16:32:64-S128"
target triple = "x86_64-pc-linux-gnu"

@.str.1 = private unnamed_addr constant [12 x i8] c"quicklist.c\00", align 1
@.str.21 = private unnamed_addr constant [9 x i8] c"fill < 0\00", align 1
@optimization_level = internal constant [5 x i64] [i64 4096, i64 8192, i64 16384, i64 32768, i64 65536], align 16

; Function Attrs: nounwind uwtable
define internal i64 @quicklistNodeNegFillLimit(i32 noundef %0) #0 {
  %2 = alloca i32, align 4
  %3 = alloca i64, align 8
  %4 = alloca i64, align 8
  store i32 %0, ptr %2, align 4, !tbaa !14
  %5 = load i32, ptr %2, align 4, !tbaa !14
  %6 = icmp slt i32 %5, 0
  %7 = xor i1 %6, true
  %8 = xor i1 %7, true
  %9 = zext i1 %8 to i32
  %10 = sext i32 %9 to i64
  %11 = call i64 @llvm.expect.i64(i64 %10, i64 1)
  %12 = icmp ne i64 %11, 0
  br i1 %12, label %13, label %14

13:                                               ; preds = %1
  br label %16

14:                                               ; preds = %1
  call void @_serverAssert(ptr noundef @.str.21, ptr noundef @.str.1, i32 noundef 463)
  call void @abort() #12
  unreachable

15:                                               ; No predecessors!
  br label %16

16:                                               ; preds = %15, %13
  call void @llvm.lifetime.start.p0(i64 8, ptr %3) #10
  %17 = load i32, ptr %2, align 4, !tbaa !14
  %18 = sub nsw i32 0, %17
  %19 = sub nsw i32 %18, 1
  %20 = sext i32 %19 to i64
  store i64 %20, ptr %3, align 8, !tbaa !5
  call void @llvm.lifetime.start.p0(i64 8, ptr %4) #10
  store i64 5, ptr %4, align 8, !tbaa !5
  %21 = load i64, ptr %3, align 8, !tbaa !5
  %22 = load i64, ptr %4, align 8, !tbaa !5
  %23 = icmp uge i64 %21, %22
  br i1 %23, label %24, label %27

24:                                               ; preds = %16
  %25 = load i64, ptr %4, align 8, !tbaa !5
  %26 = sub i64 %25, 1
  store i64 %26, ptr %3, align 8, !tbaa !5
  br label %27

27:                                               ; preds = %24, %16
  %28 = load i64, ptr %3, align 8, !tbaa !5
  %29 = getelementptr inbounds nuw [5 x i64], ptr @optimization_level, i64 0, i64 %28
  %30 = load i64, ptr %29, align 8, !tbaa !5
  call void @llvm.lifetime.end.p0(i64 8, ptr %4) #10
  call void @llvm.lifetime.end.p0(i64 8, ptr %3) #10
  ret i64 %30
}

; Function Attrs: nounwind uwtable
define dso_local void @quicklistNodeLimit(i32 noundef %0, ptr noundef %1, ptr noundef %2) #0 {
  %4 = alloca i32, align 4
  %5 = alloca ptr, align 8
  %6 = alloca ptr, align 8
  store i32 %0, ptr %4, align 4, !tbaa !14
  store ptr %1, ptr %5, align 8, !tbaa !31
  store ptr %2, ptr %6, align 8, !tbaa !33
  %7 = load ptr, ptr %5, align 8, !tbaa !31
  store i64 -1, ptr %7, align 8, !tbaa !5
  %8 = load ptr, ptr %6, align 8, !tbaa !33
  store i32 -1, ptr %8, align 4, !tbaa !14
  %9 = load i32, ptr %4, align 4, !tbaa !14
  %10 = icmp sge i32 %9, 0
  br i1 %10, label %11, label %20

11:                                               ; preds = %3
  %12 = load i32, ptr %4, align 4, !tbaa !14
  %13 = icmp eq i32 %12, 0
  br i1 %13, label %14, label %15

14:                                               ; preds = %11
  br label %17

15:                                               ; preds = %11
  %16 = load i32, ptr %4, align 4, !tbaa !14
  br label %17

17:                                               ; preds = %15, %14
  %18 = phi i32 [ 1, %14 ], [ %16, %15 ]
  %19 = load ptr, ptr %6, align 8, !tbaa !33
  store i32 %18, ptr %19, align 4, !tbaa !14
  br label %24

20:                                               ; preds = %3
  %21 = load i32, ptr %4, align 4, !tbaa !14
  %22 = call i64 @quicklistNodeNegFillLimit(i32 noundef %21)
  %23 = load ptr, ptr %5, align 8, !tbaa !31
  store i64 %22, ptr %23, align 8, !tbaa !5
  br label %24

24:                                               ; preds = %20, %17
  ret void
}

; Function Attrs: nounwind uwtable
define dso_local i32 @quicklistNodeExceedsLimit(i32 noundef %0, i64 noundef %1, i32 noundef %2) #0 {
  %4 = alloca i32, align 4
  %5 = alloca i32, align 4
  %6 = alloca i64, align 8
  %7 = alloca i32, align 4
  %8 = alloca i64, align 8
  %9 = alloca i32, align 4
  %10 = alloca i32, align 4
  store i32 %0, ptr %5, align 4, !tbaa !14
  store i64 %1, ptr %6, align 8, !tbaa !5
  store i32 %2, ptr %7, align 4, !tbaa !14
  call void @llvm.lifetime.start.p0(i64 8, ptr %8) #10
  call void @llvm.lifetime.start.p0(i64 4, ptr %9) #10
  %11 = load i32, ptr %5, align 4, !tbaa !14
  call void @quicklistNodeLimit(i32 noundef %11, ptr noundef %8, ptr noundef %9)
  %12 = load i64, ptr %8, align 8, !tbaa !5
  %13 = icmp ne i64 %12, -1
  %14 = xor i1 %13, true
  %15 = xor i1 %14, true
  %16 = zext i1 %15 to i32
  %17 = sext i32 %16 to i64
  %18 = call i64 @llvm.expect.i64(i64 %17, i64 1)
  %19 = icmp ne i64 %18, 0
  br i1 %19, label %20, label %25

20:                                               ; preds = %3
  %21 = load i64, ptr %6, align 8, !tbaa !5
  %22 = load i64, ptr %8, align 8, !tbaa !5
  %23 = icmp ugt i64 %21, %22
  %24 = zext i1 %23 to i32
  store i32 %24, ptr %4, align 4
  store i32 1, ptr %10, align 4
  br label %39

25:                                               ; preds = %3
  %26 = load i32, ptr %9, align 4, !tbaa !14
  %27 = icmp ne i32 %26, -1
  br i1 %27, label %28, label %37

28:                                               ; preds = %25
  %29 = load i64, ptr %6, align 8, !tbaa !5
  %30 = icmp ule i64 %29, 8192
  br i1 %30, label %32, label %31

31:                                               ; preds = %28
  store i32 1, ptr %4, align 4
  store i32 1, ptr %10, align 4
  br label %39

32:                                               ; preds = %28
  %33 = load i32, ptr %7, align 4, !tbaa !14
  %34 = load i32, ptr %9, align 4, !tbaa !14
  %35 = icmp ugt i32 %33, %34
  %36 = zext i1 %35 to i32
  store i32 %36, ptr %4, align 4
  store i32 1, ptr %10, align 4
  br label %39

37:                                               ; preds = %25
  br label %38

38:                                               ; preds = %37
  call void @abort() #12
  unreachable

39:                                               ; preds = %32, %31, %20
  call void @llvm.lifetime.end.p0(i64 4, ptr %9) #10
  call void @llvm.lifetime.end.p0(i64 8, ptr %8) #10
  %40 = load i32, ptr %4, align 4
  ret i32 %40
}