; Function Attrs: mustprogress nofree norecurse nosync nounwind willreturn memory(none) uwtable
define dso_local range(i32 0, 2) i32 @quicklistNodeExceedsLimit(i32 noundef %0, i64 noundef %1, i32 noundef %2) local_unnamed_addr #11 {
  %4 = icmp sgt i32 %0, -1
  br i1 %4, label %9, label %quicklistNodeLimit.exit

quicklistNodeLimit.exit:                          ; preds = %3
  %5 = tail call i32 @llvm.umax.i32(i32 range(i32 -2147483648, 0) %0, i32 -5)
  %narrow.i.i = xor i32 %5, -1
  %.0.i.i = zext nneg i32 %narrow.i.i to i64
  %6 = getelementptr inbounds nuw [5 x i64], ptr @optimization_level, i64 0, i64 %.0.i.i
  %7 = load i64, ptr %6, align 8, !tbaa !5
  %8 = icmp ugt i64 %1, %7
  br label %13

9:                                                ; preds = %3
  %10 = tail call i32 @llvm.umax.i32(i32 %0, i32 1)
  %11 = icmp ugt i64 %1, 8192
  %12 = icmp ugt i32 %2, %10
  %spec.select = or i1 %11, %12
  br label %13

13:                                               ; preds = %9, %quicklistNodeLimit.exit
  %.0.shrunk = phi i1 [ %8, %quicklistNodeLimit.exit ], [ %spec.select, %9 ]
  %.0 = zext i1 %.0.shrunk to i32
  ret i32 %.0
}